; Function Attrs: mustprogress nounwind willreturn uwtable
define void @Llb_Nonlin4AddPair(ptr noundef readonly captures(none) %0, i32 noundef %1, i32 noundef %2) local_unnamed_addr #0 {
  %4 = getelementptr inbounds nuw i8, ptr %0, i64 32
  %5 = load ptr, ptr %4, align 8, !tbaa !3
  %6 = sext i32 %2 to i64
  %7 = getelementptr inbounds ptr, ptr %5, i64 %6
  %8 = load ptr, ptr %7, align 8, !tbaa !16
  %9 = icmp eq ptr %8, null
  br i1 %9, label %.thread, label %17

.thread:                                          ; preds = %3
  %10 = tail call noalias dereferenceable_or_null(16) ptr @calloc(i64 noundef 1, i64 noundef 16) #17
  store ptr %10, ptr %7, align 8, !tbaa !16
  store i32 %2, ptr %10, align 8, !tbaa !14
  %11 = tail call noalias dereferenceable_or_null(16) ptr @malloc(i64 noundef 16) #16
  %12 = getelementptr inbounds nuw i8, ptr %11, i64 4
  store i32 0, ptr %12, align 4, !tbaa !45
  store i32 16, ptr %11, align 8, !tbaa !70
  %13 = tail call noalias dereferenceable_or_null(64) ptr @malloc(i64 noundef 64) #16
  %14 = getelementptr inbounds nuw i8, ptr %11, i64 8
  store ptr %13, ptr %14, align 8, !tbaa !19
  %15 = getelementptr inbounds nuw i8, ptr %10, i64 8
  store ptr %11, ptr %15, align 8, !tbaa !18
  %16 = getelementptr inbounds nuw i8, ptr %11, i64 4
  br label %.Vec_IntGrow.exit10_crit_edge.i

17:                                               ; preds = %3
  %.phi.trans.insert = getelementptr inbounds nuw i8, ptr %8, i64 8
  %.pre = load ptr, ptr %.phi.trans.insert, align 8, !tbaa !18
  %.phi.trans.insert23 = getelementptr inbounds nuw i8, ptr %.pre, i64 4
  %.pre24 = load i32, ptr %.phi.trans.insert23, align 4, !tbaa !45
  %.pre25 = load i32, ptr %.pre, align 8, !tbaa !70
  %18 = getelementptr inbounds nuw i8, ptr %.pre, i64 4
  %19 = icmp eq i32 %.pre24, %.pre25
  br i1 %19, label %22, label %.Vec_IntGrow.exit10_crit_edge.i

.Vec_IntGrow.exit10_crit_edge.i:                  ; preds = %.thread, %17
  %20 = phi ptr [ %16, %.thread ], [ %18, %17 ]
  %21 = phi ptr [ %11, %.thread ], [ %.pre, %17 ]
  %.phi.trans.insert.i = getelementptr inbounds nuw i8, ptr %21, i64 8
  %.pre.i = load ptr, ptr %.phi.trans.insert.i, align 8, !tbaa !19
  br label %Vec_IntPush.exit

22:                                               ; preds = %17
  %23 = icmp slt i32 %.pre25, 16
  br i1 %23, label %24, label %32

24:                                               ; preds = %22
  %25 = getelementptr inbounds nuw i8, ptr %.pre, i64 8
  %26 = load ptr, ptr %25, align 8, !tbaa !19
  %.not9.i.i = icmp eq ptr %26, null
  br i1 %.not9.i.i, label %29, label %27

27:                                               ; preds = %24
  %28 = tail call dereferenceable_or_null(64) ptr @realloc(ptr noundef nonnull %26, i64 noundef 64) #15
  br label %Vec_IntGrow.exit.i

29:                                               ; preds = %24
  %30 = tail call noalias dereferenceable_or_null(64) ptr @malloc(i64 noundef 64) #16
  br label %Vec_IntGrow.exit.i

Vec_IntGrow.exit.i:                               ; preds = %29, %27
  %31 = phi ptr [ %28, %27 ], [ %30, %29 ]
  store ptr %31, ptr %25, align 8, !tbaa !19
  store i32 16, ptr %.pre, align 8, !tbaa !70
  br label %Vec_IntPush.exit

32:                                               ; preds = %22
  %33 = shl nuw nsw i32 %.pre25, 1
  %34 = getelementptr inbounds nuw i8, ptr %.pre, i64 8
  %35 = load ptr, ptr %34, align 8, !tbaa !19
  %.not9.i9.i = icmp eq ptr %35, null
  %36 = zext nneg i32 %33 to i64
  %37 = shl nuw nsw i64 %36, 2
  br i1 %.not9.i9.i, label %40, label %38

38:                                               ; preds = %32
  %39 = tail call ptr @realloc(ptr noundef nonnull %35, i64 noundef %37) #15
  br label %42

40:                                               ; preds = %32
  %41 = tail call noalias ptr @malloc(i64 noundef %37) #16
  br label %42

42:                                               ; preds = %40, %38
  %43 = phi ptr [ %39, %38 ], [ %41, %40 ]
  store ptr %43, ptr %34, align 8, !tbaa !19
  store i32 %33, ptr %.pre, align 8, !tbaa !70
  br label %Vec_IntPush.exit

Vec_IntPush.exit:                                 ; preds = %.Vec_IntGrow.exit10_crit_edge.i, %Vec_IntGrow.exit.i, %42
  %44 = phi ptr [ %20, %.Vec_IntGrow.exit10_crit_edge.i ], [ %18, %42 ], [ %18, %Vec_IntGrow.exit.i ]
  %45 = phi ptr [ %.pre.i, %.Vec_IntGrow.exit10_crit_edge.i ], [ %43, %42 ], [ %31, %Vec_IntGrow.exit.i ]
  %46 = load i32, ptr %44, align 4, !tbaa !45
  %47 = add nsw i32 %46, 1
  store i32 %47, ptr %44, align 4, !tbaa !45
  %48 = sext i32 %46 to i64
  %49 = getelementptr inbounds i32, ptr %45, i64 %48
  store i32 %1, ptr %49, align 4, !tbaa !46
  %50 = getelementptr inbounds nuw i8, ptr %0, i64 24
  %51 = load ptr, ptr %50, align 8, !tbaa !21
  %52 = sext i32 %1 to i64
  %53 = getelementptr inbounds ptr, ptr %51, i64 %52
  %54 = load ptr, ptr %53, align 8, !tbaa !25
  %55 = getelementptr inbounds nuw i8, ptr %54, i64 16
  %56 = load ptr, ptr %55, align 8, !tbaa !27
  %57 = getelementptr inbounds nuw i8, ptr %56, i64 4
  %58 = load i32, ptr %57, align 4, !tbaa !45
  %59 = load i32, ptr %56, align 8, !tbaa !70
  %60 = icmp eq i32 %58, %59
  br i1 %60, label %61, label %.Vec_IntGrow.exit10_crit_edge.i16

.Vec_IntGrow.exit10_crit_edge.i16:                ; preds = %Vec_IntPush.exit
  %.phi.trans.insert.i17 = getelementptr inbounds nuw i8, ptr %56, i64 8
  %.pre.i18 = load ptr, ptr %.phi.trans.insert.i17, align 8, !tbaa !19
  br label %Vec_IntPush.exit22

61:                                               ; preds = %Vec_IntPush.exit
  %62 = icmp slt i32 %58, 16
  br i1 %62, label %63, label %71

63:                                               ; preds = %61
  %64 = getelementptr inbounds nuw i8, ptr %56, i64 8
  %65 = load ptr, ptr %64, align 8, !tbaa !19
  %.not9.i.i20 = icmp eq ptr %65, null
  br i1 %.not9.i.i20, label %68, label %66

66:                                               ; preds = %63
  %67 = tail call dereferenceable_or_null(64) ptr @realloc(ptr noundef nonnull %65, i64 noundef 64) #15
  br label %Vec_IntGrow.exit.i21

68:                                               ; preds = %63
  %69 = tail call noalias dereferenceable_or_null(64) ptr @malloc(i64 noundef 64) #16
  br label %Vec_IntGrow.exit.i21

Vec_IntGrow.exit.i21:                             ; preds = %68, %66
  %70 = phi ptr [ %67, %66 ], [ %69, %68 ]
  store ptr %70, ptr %64, align 8, !tbaa !19
  store i32 16, ptr %56, align 8, !tbaa !70
  br label %Vec_IntPush.exit22

71:                                               ; preds = %61
  %72 = shl nuw nsw i32 %58, 1
  %73 = getelementptr inbounds nuw i8, ptr %56, i64 8
  %74 = load ptr, ptr %73, align 8, !tbaa !19
  %.not9.i9.i19 = icmp eq ptr %74, null
  %75 = zext nneg i32 %72 to i64
  %76 = shl nuw nsw i64 %75, 2
  br i1 %.not9.i9.i19, label %79, label %77

77:                                               ; preds = %71
  %78 = tail call ptr @realloc(ptr noundef nonnull %74, i64 noundef %76) #15
  br label %81

79:                                               ; preds = %71
  %80 = tail call noalias ptr @malloc(i64 noundef %76) #16
  br label %81

81:                                               ; preds = %79, %77
  %82 = phi ptr [ %78, %77 ], [ %80, %79 ]
  store ptr %82, ptr %73, align 8, !tbaa !19
  store i32 %72, ptr %56, align 8, !tbaa !70
  br label %Vec_IntPush.exit22

Vec_IntPush.exit22:                               ; preds = %.Vec_IntGrow.exit10_crit_edge.i16, %Vec_IntGrow.exit.i21, %81
  %83 = phi ptr [ %.pre.i18, %.Vec_IntGrow.exit10_crit_edge.i16 ], [ %82, %81 ], [ %70, %Vec_IntGrow.exit.i21 ]
  %84 = load i32, ptr %57, align 4, !tbaa !45
  %85 = add nsw i32 %84, 1
  store i32 %85, ptr %57, align 4, !tbaa !45
  %86 = sext i32 %84 to i64
  %87 = getelementptr inbounds i32, ptr %83, i64 %86
  store i32 %2, ptr %87, align 4, !tbaa !46
  ret void
}